BL51 BANKED LINKER/LOCATER V6.22                                                        04/08/2022  20:23:09  PAGE 1


BL51 BANKED LINKER/LOCATER V6.22, INVOKED BY:
D:\KEIL 5\C51\KEIL(相关软件)\C51\BIN\BL51.EXE .\Objects\STARTUP.obj, .\Objects\main.obj, .\Objects\onewire.obj TO .\Obje
>> cts\test1 PRINT (.\Listings\test1.m51) RAMSIZE (256)


MEMORY MODEL: SMALL WITH FLOATING POINT ARITHMETIC


INPUT MODULES INCLUDED:
  .\Objects\STARTUP.obj (?C_STARTUP)
  .\Objects\main.obj (MAIN)
  .\Objects\onewire.obj (ONEWIRE)
  D:\KEIL 5\C51\KEIL(相关软件)\C51\LIB\C51FPS.LIB (?C?FPMUL)
  D:\KEIL 5\C51\KEIL(相关软件)\C51\LIB\C51FPS.LIB (?C?FCAST)
  D:\KEIL 5\C51\KEIL(相关软件)\C51\LIB\C51FPS.LIB (?C?CASTF)
  D:\KEIL 5\C51\KEIL(相关软件)\C51\LIB\C51FPS.LIB (?C?FPGETOPN)
  D:\KEIL 5\C51\KEIL(相关软件)\C51\LIB\C51S.LIB (?C_INIT)
  D:\KEIL 5\C51\KEIL(相关软件)\C51\LIB\C51S.LIB (?C?SLDIV)
  D:\KEIL 5\C51\KEIL(相关软件)\C51\LIB\C51S.LIB (?C?LNEG)
  D:\KEIL 5\C51\KEIL(相关软件)\C51\LIB\C51S.LIB (?C?ULDIV)


LINK MAP OF MODULE:  .\Objects\test1 (?C_STARTUP)


            TYPE    BASE      LENGTH    RELOCATION   SEGMENT NAME
            -----------------------------------------------------

            * * * * * * *   D A T A   M E M O R Y   * * * * * * *
            REG     0000H     0008H     ABSOLUTE     "REG BANK 0"
            DATA    0008H     000FH     UNIT         ?DT?MAIN
            DATA    0017H     0006H     UNIT         _DATA_GROUP_
                    001DH     0003H                  *** GAP ***
            BIT     0020H.0   0000H.5   UNIT         ?BI?MAIN
            BIT     0020H.5   0000H.1   UNIT         _BIT_GROUP_
                    0020H.6   0000H.2                *** GAP ***
            IDATA   0021H     0001H     UNIT         ?STACK

            * * * * * * *   C O D E   M E M O R Y   * * * * * * *
            CODE    0000H     0003H     ABSOLUTE     
                    0003H     0008H                  *** GAP ***
            CODE    000BH     0003H     ABSOLUTE     
            CODE    000EH     02A1H     UNIT         ?C?LIB_CODE
            CODE    02AFH     0106H     UNIT         ?PR?_DATACHANGE?MAIN
            CODE    03B5H     00CCH     UNIT         ?PR?MAIN?MAIN
            CODE    0481H     00C4H     UNIT         ?PR?READ_KEY?MAIN
            CODE    0545H     008CH     UNIT         ?C_C51STARTUP
            CODE    05D1H     004DH     UNIT         ?PR?TIMER0?MAIN
            CODE    061EH     0044H     UNIT         ?C?LDIV
            CODE    0662H     0038H     UNIT         ?PR?DISPLAY?MAIN
            CODE    069AH     002AH     UNIT         ?C_INITSEG
            CODE    06C4H     002AH     UNIT         ?PR?RD_TEMPERATURE?ONEWIRE
            CODE    06EEH     0027H     UNIT         ?PR?INIT_DS18B20?ONEWIRE
            CODE    0715H     001EH     UNIT         ?PR?_WRITE_DS18B20?ONEWIRE
            CODE    0733H     001AH     UNIT         ?PR?_DELAY_ONEWIRE?ONEWIRE
            CODE    074DH     001AH     UNIT         ?PR?READ_DS18B20?ONEWIRE
            CODE    0767H     0019H     UNIT         ?PR?CLO_NUM?MAIN
            CODE    0780H     0018H     UNIT         ?CO?MAIN
BL51 BANKED LINKER/LOCATER V6.22                                                      04/08/2022  20:23:09  PAGE 2


            CODE    0798H     0015H     UNIT         ?PR?TIMER0INIT?MAIN
            CODE    07ADH     0011H     UNIT         ?PR?ALL_INIT?MAIN
            CODE    07BEH     000DH     UNIT         ?PR?_DOOR?MAIN



OVERLAY MAP OF MODULE:   .\Objects\test1 (?C_STARTUP)


SEGMENT                               BIT_GROUP          DATA_GROUP 
  +--> CALLED SEGMENT              START    LENGTH     START    LENGTH
----------------------------------------------------------------------
?C_C51STARTUP                      -----    -----      -----    -----
  +--> ?PR?MAIN?MAIN
  +--> ?C_INITSEG

?PR?MAIN?MAIN                      -----    -----      0017H    0002H
  +--> ?PR?TIMER0INIT?MAIN
  +--> ?PR?ALL_INIT?MAIN
  +--> ?PR?RD_TEMPERATURE?ONEWIRE
  +--> ?PR?_DATACHANGE?MAIN
  +--> ?PR?CLO_NUM?MAIN
  +--> ?PR?READ_KEY?MAIN
  +--> ?PR?_DOOR?MAIN

?PR?ALL_INIT?MAIN                  -----    -----      -----    -----
  +--> ?PR?_DOOR?MAIN
  +--> ?PR?CLO_NUM?MAIN

?PR?RD_TEMPERATURE?ONEWIRE         -----    -----      -----    -----
  +--> ?PR?INIT_DS18B20?ONEWIRE
  +--> ?PR?_WRITE_DS18B20?ONEWIRE
  +--> ?PR?READ_DS18B20?ONEWIRE

?PR?INIT_DS18B20?ONEWIRE           0020H.5  0000H.1    -----    -----
  +--> ?PR?_DELAY_ONEWIRE?ONEWIRE

?PR?_WRITE_DS18B20?ONEWIRE         -----    -----      -----    -----
  +--> ?PR?_DELAY_ONEWIRE?ONEWIRE

?PR?READ_DS18B20?ONEWIRE           -----    -----      -----    -----
  +--> ?PR?_DELAY_ONEWIRE?ONEWIRE

?PR?_DATACHANGE?MAIN               -----    -----      0019H    0004H

?PR?READ_KEY?MAIN                  -----    -----      0019H    0002H

*** NEW ROOT ***************************************************

?PR?TIMER0?MAIN                    -----    -----      -----    -----
  +--> ?PR?DISPLAY?MAIN

?PR?DISPLAY?MAIN                   -----    -----      -----    -----
  +--> ?PR?_DOOR?MAIN
  +--> ?CO?MAIN


BL51 BANKED LINKER/LOCATER V6.22                                                      04/08/2022  20:23:09  PAGE 3



SYMBOL TABLE OF MODULE:  .\Objects\test1 (?C_STARTUP)

  VALUE           TYPE          NAME
  ----------------------------------

  -------         MODULE        ?C_STARTUP
  C:0545H         SEGMENT       ?C_C51STARTUP
  I:0021H         SEGMENT       ?STACK
  C:0000H         PUBLIC        ?C_STARTUP
  D:00E0H         SYMBOL        ACC
  D:00F0H         SYMBOL        B
  D:0083H         SYMBOL        DPH
  D:0082H         SYMBOL        DPL
  N:0000H         SYMBOL        IBPSTACK
  N:0100H         SYMBOL        IBPSTACKTOP
  N:0080H         SYMBOL        IDATALEN
  C:0548H         SYMBOL        IDATALOOP
  N:0000H         SYMBOL        PBPSTACK
  N:0100H         SYMBOL        PBPSTACKTOP
  N:0000H         SYMBOL        PDATALEN
  N:0000H         SYMBOL        PDATASTART
  N:0000H         SYMBOL        PPAGE
  N:0000H         SYMBOL        PPAGEENABLE
  D:00A0H         SYMBOL        PPAGE_SFR
  D:0081H         SYMBOL        SP
  C:0545H         SYMBOL        STARTUP1
  N:0000H         SYMBOL        XBPSTACK
  N:0000H         SYMBOL        XBPSTACKTOP
  N:0000H         SYMBOL        XDATALEN
  N:0000H         SYMBOL        XDATASTART
  C:0000H         LINE#         126
  C:0545H         LINE#         133
  C:0547H         LINE#         134
  C:0548H         LINE#         135
  C:0549H         LINE#         136
  C:054BH         LINE#         185
  C:054EH         LINE#         196
  -------         ENDMOD        ?C_STARTUP

  -------         MODULE        MAIN
  C:0000H         SYMBOL        _ICE_DUMMY_
  D:0080H         PUBLIC        P0
  D:0090H         PUBLIC        P1
  D:00A0H         PUBLIC        P2
  D:00B0H         PUBLIC        P3
  D:00C0H         PUBLIC        P4
  D:00C8H         PUBLIC        P5
  B:00A8H.7       PUBLIC        EA
  D:00E8H         PUBLIC        P6
  C:02AFH         PUBLIC        _datachange
  D:00F8H         PUBLIC        P7
  D:000BH         PUBLIC        dspbuf
  D:0013H         PUBLIC        dspcom
  D:00A8H         PUBLIC        IE
  B:0020H.0       PUBLIC        temp_w
  D:00B8H         PUBLIC        IP
BL51 BANKED LINKER/LOCATER V6.22                                                      04/08/2022  20:23:09  PAGE 4


  B:0020H.1       PUBLIC        flag
  D:00D8H         PUBLIC        CCON
  C:03B5H         PUBLIC        main
  C:0481H         PUBLIC        Read_key
  D:0098H         PUBLIC        SCON
  B:0020H.2       PUBLIC        temp_flag
  D:0089H         PUBLIC        TMOD
  D:0088H         PUBLIC        TCON
  C:07BEH         PUBLIC        _door
  B:00C0H.2       PUBLIC        P42
  C:0780H         PUBLIC        tab
  B:00C0H.4       PUBLIC        P44
  B:00B0H.6       PUBLIC        P36
  B:00B0H.7       PUBLIC        P37
  D:008EH         PUBLIC        AUXR
  B:0020H.3       PUBLIC        key_flag
  B:00A8H.1       PUBLIC        ET0
  B:0088H.5       PUBLIC        TF0
  C:0798H         PUBLIC        Timer0Init
  D:008CH         PUBLIC        TH0
  B:0020H.4       PUBLIC        flag1
  D:008AH         PUBLIC        TL0
  C:07ADH         PUBLIC        all_init
  C:05D1H         PUBLIC        timer0
  B:0088H.4       PUBLIC        TR0
  D:0014H         PUBLIC        keyread
  D:0015H         PUBLIC        keyvalue
  C:0767H         PUBLIC        clo_num
  C:0662H         PUBLIC        display
  D:00D0H         PUBLIC        PSW
  D:0016H         PUBLIC        keypress
  -------         PROC          TIMER0INIT
  C:0798H         LINE#         14
  C:0798H         LINE#         15
  C:0798H         LINE#         16
  C:079BH         LINE#         17
  C:079EH         LINE#         18
  C:07A1H         LINE#         19
  C:07A4H         LINE#         20
  C:07A6H         LINE#         21
  C:07A8H         LINE#         23
  C:07AAH         LINE#         24
  C:07ACH         LINE#         25
  -------         ENDPROC       TIMER0INIT
  -------         PROC          _DOOR
  D:0007H         SYMBOL        choose
  D:0005H         SYMBOL        input
  C:07BEH         LINE#         45
  C:07BEH         LINE#         46
  C:07BEH         LINE#         47
  C:07C5H         LINE#         48
  C:07C7H         LINE#         49
  C:07CAH         LINE#         50
  -------         ENDPROC       _DOOR
  -------         PROC          CLO_NUM
  C:0767H         LINE#         52
  C:0767H         LINE#         53
BL51 BANKED LINKER/LOCATER V6.22                                                      04/08/2022  20:23:09  PAGE 5


  C:0767H         LINE#         54
  C:076AH         LINE#         55
  C:076DH         LINE#         56
  C:0770H         LINE#         57
  C:0773H         LINE#         58
  C:0776H         LINE#         59
  C:0779H         LINE#         60
  C:077CH         LINE#         61
  C:077FH         LINE#         62
  -------         ENDPROC       CLO_NUM
  -------         PROC          ALL_INIT
  C:07ADH         LINE#         64
  C:07ADH         LINE#         65
  C:07ADH         LINE#         66
  C:07B4H         LINE#         67
  C:07BBH         LINE#         68
  -------         ENDPROC       ALL_INIT
  -------         PROC          DISPLAY
  C:0662H         LINE#         71
  C:0662H         LINE#         72
  C:0662H         LINE#         73
  C:0669H         LINE#         75
  C:067CH         LINE#         76
  C:068FH         LINE#         78
  C:0696H         LINE#         79
  C:0699H         LINE#         80
  -------         ENDPROC       DISPLAY
  -------         PROC          READ_KEY
  -------         DO            
  D:0019H         SYMBOL        key_m
  D:001AH         SYMBOL        cal
  -------         ENDDO         
  C:0481H         LINE#         118
  C:0481H         LINE#         119
  C:0481H         LINE#         122
  C:0488H         LINE#         123
  C:0490H         LINE#         124
  C:0496H         LINE#         126
  C:049AH         LINE#         127
  C:049EH         LINE#         129
  C:04A1H         LINE#         131
  C:04A7H         LINE#         132
  C:04A7H         LINE#         133
  C:04A9H         LINE#         134
  C:04ACH         LINE#         135
  C:04BEH         LINE#         136
  C:04BEH         LINE#         137
  C:04C3H         LINE#         138
  C:04C8H         LINE#         139
  C:04CDH         LINE#         140
  C:04D0H         LINE#         141
  C:04D0H         LINE#         143
  C:04D7H         LINE#         144
  C:04DFH         LINE#         145
  C:04E5H         LINE#         147
  C:04F4H         LINE#         148
  C:04F4H         LINE#         149
BL51 BANKED LINKER/LOCATER V6.22                                                      04/08/2022  20:23:09  PAGE 6


  C:04FEH         LINE#         150
  C:0508H         LINE#         151
  C:0512H         LINE#         152
  C:051EH         LINE#         153
  C:051EH         LINE#         154
  C:051EH         LINE#         156
  C:0525H         LINE#         157
  C:052DH         LINE#         158
  C:0533H         LINE#         160
  C:053DH         LINE#         161
  C:053DH         LINE#         162
  C:0540H         LINE#         164
  C:0542H         LINE#         165
  C:0542H         LINE#         167
  C:0544H         LINE#         168
  -------         ENDPROC       READ_KEY
  -------         PROC          _DATACHANGE
  D:0019H         SYMBOL        temp
  C:02AFH         LINE#         170
  C:02B7H         LINE#         171
  C:02B7H         LINE#         172
  C:02D1H         LINE#         174
  C:02DEH         LINE#         175
  C:0306H         LINE#         176
  C:0330H         LINE#         177
  C:0356H         LINE#         178
  C:037BH         LINE#         179
  C:039FH         LINE#         180
  C:03B4H         LINE#         181
  -------         ENDPROC       _DATACHANGE
  -------         PROC          MAIN
  -------         DO            
  D:0017H         SYMBOL        key_re
  D:0018H         SYMBOL        num
  -------         ENDDO         
  C:03B5H         LINE#         183
  C:03B5H         LINE#         184
  C:03B5H         LINE#         185
  C:03B8H         LINE#         189
  C:03BBH         LINE#         190
  C:03BEH         LINE#         205
  C:03BEH         LINE#         206
  C:03BEH         LINE#         207
  C:03C4H         LINE#         208
  C:03C4H         LINE#         209
  C:03C6H         LINE#         210
  C:03D2H         LINE#         211
  C:03D2H         LINE#         213
  C:03D5H         LINE#         214
  C:03D8H         LINE#         217
  C:03DBH         LINE#         218
  C:03DBH         LINE#         219
  C:03DDH         LINE#         220
  C:03E2H         LINE#         222
  C:03E7H         LINE#         223
  C:03E7H         LINE#         224
  C:042EH         LINE#         225
BL51 BANKED LINKER/LOCATER V6.22                                                      04/08/2022  20:23:09  PAGE 7


  C:042EH         LINE#         226
  C:0432H         LINE#         227
  C:0436H         LINE#         228
  C:043AH         LINE#         229
  C:043EH         LINE#         230
  C:0442H         LINE#         231
  C:0446H         LINE#         232
  C:044AH         LINE#         233
  C:044EH         LINE#         234
  C:044EH         LINE#         235
  C:0454H         LINE#         236
  C:0459H         LINE#         237
  C:045BH         LINE#         238
  C:0461H         LINE#         239
  C:0467H         LINE#         240
  C:046DH         LINE#         241
  C:0477H         LINE#         242
  -------         ENDPROC       MAIN
  -------         PROC          TIMER0
  -------         DO            
  D:0008H         SYMBOL        t_20ms
  D:0009H         SYMBOL        t_500ms
  D:000AH         SYMBOL        t_50ms
  -------         ENDDO         
  C:05D1H         LINE#         251
  C:05E2H         LINE#         256
  C:05E5H         LINE#         258
  C:05E7H         LINE#         259
  C:05E9H         LINE#         260
  C:05EBH         LINE#         262
  C:05F2H         LINE#         263
  C:05F2H         LINE#         264
  C:05F5H         LINE#         265
  C:05F7H         LINE#         266
  C:05F7H         LINE#         268
  C:05FEH         LINE#         269
  C:05FEH         LINE#         270
  C:0601H         LINE#         271
  C:0603H         LINE#         272
  C:0603H         LINE#         274
  C:060AH         LINE#         275
  C:060AH         LINE#         276
  C:060DH         LINE#         277
  C:060FH         LINE#         278
  C:060FH         LINE#         279
  -------         ENDPROC       TIMER0
  -------         ENDMOD        MAIN

  -------         MODULE        ONEWIRE
  C:0000H         SYMBOL        _ICE_DUMMY_
  D:0080H         PUBLIC        P0
  D:0090H         PUBLIC        P1
  D:00A0H         PUBLIC        P2
  D:00B0H         PUBLIC        P3
  D:00C0H         PUBLIC        P4
  C:074DH         PUBLIC        Read_DS18B20
  D:00C8H         PUBLIC        P5
BL51 BANKED LINKER/LOCATER V6.22                                                      04/08/2022  20:23:09  PAGE 8


  D:00E8H         PUBLIC        P6
  D:00F8H         PUBLIC        P7
  D:00A8H         PUBLIC        IE
  C:0737H         PUBLIC        _Delay_OneWire
  C:0715H         PUBLIC        _Write_DS18B20
  B:0090H.4       PUBLIC        DQ
  D:00B8H         PUBLIC        IP
  C:06EEH         PUBLIC        init_ds18b20
  D:00D8H         PUBLIC        CCON
  D:0098H         PUBLIC        SCON
  D:0088H         PUBLIC        TCON
  C:06C4H         PUBLIC        rd_temperature
  D:00D0H         PUBLIC        PSW
  C:0733H         SYMBOL        L?0020
  -------         PROC          L?0019
  -------         ENDPROC       L?0019
  C:0733H         SYMBOL        L?0020
  -------         PROC          _DELAY_ONEWIRE
  D:0006H         SYMBOL        t
  -------         DO            
  D:0005H         SYMBOL        num
  -------         ENDDO         
  C:0737H         LINE#         14
  C:0737H         LINE#         15
  C:0737H         LINE#         17
  C:0741H         LINE#         18
  C:074CH         LINE#         19
  -------         ENDPROC       _DELAY_ONEWIRE
  -------         PROC          _WRITE_DS18B20
  D:0001H         SYMBOL        dat
  -------         DO            
  D:0003H         SYMBOL        i
  -------         ENDDO         
  C:0715H         LINE#         22
  C:0717H         LINE#         23
  C:0717H         LINE#         25
  C:0719H         LINE#         26
  C:0719H         LINE#         27
  C:071BH         LINE#         28
  C:071FH         LINE#         29
  C:0722H         LINE#         30
  C:0724H         LINE#         31
  C:0728H         LINE#         32
  C:072CH         LINE#         33
  -------         ENDPROC       _WRITE_DS18B20
  -------         PROC          READ_DS18B20
  -------         DO            
  D:0003H         SYMBOL        i
  D:0004H         SYMBOL        dat
  -------         ENDDO         
  C:074DH         LINE#         37
  C:074DH         LINE#         38
  C:074DH         LINE#         42
  C:074FH         LINE#         43
  C:074FH         LINE#         44
  C:0751H         LINE#         45
  C:0755H         LINE#         46
BL51 BANKED LINKER/LOCATER V6.22                                                      04/08/2022  20:23:09  PAGE 9


  C:0757H         LINE#         47
  C:075AH         LINE#         48
  C:075AH         LINE#         49
  C:075DH         LINE#         50
  C:075DH         LINE#         51
  C:0760H         LINE#         52
  C:0764H         LINE#         53
  C:0766H         LINE#         54
  -------         ENDPROC       READ_DS18B20
  -------         PROC          INIT_DS18B20
  -------         DO            
  B:0020H.5       SYMBOL        initflag
  -------         ENDDO         
  C:06EEH         LINE#         57
  C:06EEH         LINE#         58
  C:06EEH         LINE#         59
  C:06F0H         LINE#         60
  C:06F2H         LINE#         61
  C:06F9H         LINE#         62
  C:06FBH         LINE#         63
  C:0702H         LINE#         64
  C:0704H         LINE#         65
  C:070BH         LINE#         66
  C:070FH         LINE#         67
  C:0712H         LINE#         68
  C:0714H         LINE#         69
  -------         ENDPROC       INIT_DS18B20
  -------         PROC          RD_TEMPERATURE
  -------         DO            
  D:0006H         SYMBOL        temp
  D:0007H         SYMBOL        tmh
  D:0001H         SYMBOL        tml
  -------         ENDDO         
  C:06C4H         LINE#         72
  C:06C4H         LINE#         73
  C:06C4H         LINE#         74
  C:06C7H         LINE#         77
  C:06CAH         LINE#         78
  C:06CFH         LINE#         79
  C:06D4H         LINE#         81
  C:06D7H         LINE#         82
  C:06DCH         LINE#         83
  C:06E1H         LINE#         85
  C:06E6H         LINE#         86
  C:06E9H         LINE#         88
  C:06E9H         LINE#         89
  C:06EBH         LINE#         90
  C:06EDH         LINE#         92
  C:06EDH         LINE#         93
  -------         ENDPROC       RD_TEMPERATURE
  -------         ENDMOD        ONEWIRE

  -------         MODULE        ?C?FPMUL
  C:000EH         PUBLIC        ?C?FPMUL
  -------         ENDMOD        ?C?FPMUL

  -------         MODULE        ?C?FCAST
BL51 BANKED LINKER/LOCATER V6.22                                                      04/08/2022  20:23:09  PAGE 10


  C:011EH         PUBLIC        ?C?FCASTC
  C:0119H         PUBLIC        ?C?FCASTI
  C:0114H         PUBLIC        ?C?FCASTL
  -------         ENDMOD        ?C?FCAST

  -------         MODULE        ?C?CASTF
  C:0152H         PUBLIC        ?C?CASTF
  -------         ENDMOD        ?C?CASTF

  -------         MODULE        ?C?SLDIV
  C:061EH         PUBLIC        ?C?SLDIV
  -------         ENDMOD        ?C?SLDIV

  -------         MODULE        ?C?LNEG
  C:01D3H         PUBLIC        ?C?LNEG
  -------         ENDMOD        ?C?LNEG

  -------         MODULE        ?C?ULDIV
  C:021DH         PUBLIC        ?C?ULDIV
  -------         ENDMOD        ?C?ULDIV

Program Size: data=30.6 xdata=0 code=1987
LINK/LOCATE RUN COMPLETE.  0 WARNING(S),  0 ERROR(S)
